target datalayout = "e-m:e-p270:32:32-p271:32:32-p272:64:64-i64:64-i128:128-f80:128-n8:16:32:64-S128"
target triple = "x86_64-pc-linux-gnu"

%struct.H5VL_get_connector_ud_t = type { %struct.H5PL_vol_key_t, i64 }
%struct.H5PL_vol_key_t = type { i32, %union.anon.5 }
%union.anon.5 = type { ptr }
%struct.H5VL_class_t = type { i32, i32, ptr, i32, i64, ptr, ptr, %struct.H5VL_info_class_t, %struct.H5VL_wrap_class_t, %struct.H5VL_attr_class_t, %struct.H5VL_dataset_class_t, %struct.H5VL_datatype_class_t, %struct.H5VL_file_class_t, %struct.H5VL_group_class_t, %struct.H5VL_link_class_t, %struct.H5VL_object_class_t, %struct.H5VL_introspect_class_t, %struct.H5VL_request_class_t, %struct.H5VL_blob_class_t, %struct.H5VL_token_class_t, ptr }
%struct.H5VL_info_class_t = type { i64, ptr, ptr, ptr, ptr, ptr }
%struct.H5VL_wrap_class_t = type { ptr, ptr, ptr, ptr, ptr }
%struct.H5VL_attr_class_t = type { ptr, ptr, ptr, ptr, ptr, ptr, ptr, ptr }
%struct.H5VL_dataset_class_t = type { ptr, ptr, ptr, ptr, ptr, ptr, ptr, ptr }
%struct.H5VL_datatype_class_t = type { ptr, ptr, ptr, ptr, ptr, ptr }
%struct.H5VL_file_class_t = type { ptr, ptr, ptr, ptr, ptr, ptr }
%struct.H5VL_group_class_t = type { ptr, ptr, ptr, ptr, ptr, ptr }
%struct.H5VL_link_class_t = type { ptr, ptr, ptr, ptr, ptr, ptr }
%struct.H5VL_object_class_t = type { ptr, ptr, ptr, ptr, ptr }
%struct.H5VL_introspect_class_t = type { ptr, ptr, ptr }
%struct.H5VL_request_class_t = type { ptr, ptr, ptr, ptr, ptr, ptr }
%struct.H5VL_blob_class_t = type { ptr, ptr, ptr, ptr }
%struct.H5VL_token_class_t = type { ptr, ptr, ptr }

; Function Attrs: nounwind uwtable
define internal i32 @H5VL__get_connector_cb(ptr noundef %0, i64 noundef %1, ptr noundef %2) #0 {
  %4 = alloca ptr, align 8
  %5 = alloca i64, align 8
  %6 = alloca ptr, align 8
  %7 = alloca ptr, align 8
  %8 = alloca ptr, align 8
  %9 = alloca i32, align 4
  store ptr %0, ptr %4, align 8
  store i64 %1, ptr %5, align 8
  store ptr %2, ptr %6, align 8
  %10 = load ptr, ptr %6, align 8
  store ptr %10, ptr %7, align 8
  %11 = load ptr, ptr %4, align 8
  store ptr %11, ptr %8, align 8
  store i32 0, ptr %9, align 4
  %12 = load ptr, ptr %7, align 8
  %13 = getelementptr inbounds %struct.H5VL_get_connector_ud_t, ptr %12, i32 0, i32 0
  %14 = getelementptr inbounds %struct.H5PL_vol_key_t, ptr %13, i32 0, i32 0
  %15 = load i32, ptr %14, align 8
  %16 = icmp eq i32 0, %15
  br i1 %16, label %17, label %32

17:                                               ; preds = %3
  %18 = load ptr, ptr %8, align 8
  %19 = getelementptr inbounds %struct.H5VL_class_t, ptr %18, i32 0, i32 2
  %20 = load ptr, ptr %19, align 8
  %21 = load ptr, ptr %7, align 8
  %22 = getelementptr inbounds %struct.H5VL_get_connector_ud_t, ptr %21, i32 0, i32 0
  %23 = getelementptr inbounds %struct.H5PL_vol_key_t, ptr %22, i32 0, i32 1
  %24 = load ptr, ptr %23, align 8
  %25 = call i32 @strcmp(ptr noundef %20, ptr noundef %24) #6
  %26 = icmp eq i32 0, %25
  br i1 %26, label %27, label %31

27:                                               ; preds = %17
  %28 = load i64, ptr %5, align 8
  %29 = load ptr, ptr %7, align 8
  %30 = getelementptr inbounds %struct.H5VL_get_connector_ud_t, ptr %29, i32 0, i32 1
  store i64 %28, ptr %30, align 8
  store i32 1, ptr %9, align 4
  br label %31

31:                                               ; preds = %27, %17
  br label %46

32:                                               ; preds = %3
  %33 = load ptr, ptr %8, align 8
  %34 = getelementptr inbounds %struct.H5VL_class_t, ptr %33, i32 0, i32 1
  %35 = load i32, ptr %34, align 4
  %36 = load ptr, ptr %7, align 8
  %37 = getelementptr inbounds %struct.H5VL_get_connector_ud_t, ptr %36, i32 0, i32 0
  %38 = getelementptr inbounds %struct.H5PL_vol_key_t, ptr %37, i32 0, i32 1
  %39 = load i32, ptr %38, align 8
  %40 = icmp eq i32 %35, %39
  br i1 %40, label %41, label %45

41:                                               ; preds = %32
  %42 = load i64, ptr %5, align 8
  %43 = load ptr, ptr %7, align 8
  %44 = getelementptr inbounds %struct.H5VL_get_connector_ud_t, ptr %43, i32 0, i32 1
  store i64 %42, ptr %44, align 8
  store i32 1, ptr %9, align 4
  br label %45

45:                                               ; preds = %41, %32
  br label %46

46:                                               ; preds = %45, %31
  %47 = load i32, ptr %9, align 4
  ret i32 %47
}