; Function Attrs: mustprogress nofree nounwind willreturn memory(read, argmem: readwrite, inaccessiblemem: none) uwtable
define internal range(i32 0, 2) i32 @H5VL__get_connector_cb(ptr nocapture noundef readonly %0, i64 noundef %1, ptr nocapture noundef %2) #7 {
  %4 = load i32, ptr %2, align 8
  %5 = icmp eq i32 %4, 0
  %6 = getelementptr inbounds i8, ptr %2, i64 8
  br i1 %5, label %7, label %13

7:                                                ; preds = %3
  %8 = getelementptr inbounds i8, ptr %0, i64 8
  %9 = load ptr, ptr %8, align 8
  %10 = load ptr, ptr %6, align 8
  %11 = tail call i32 @strcmp(ptr noundef nonnull dereferenceable(1) %9, ptr noundef nonnull dereferenceable(1) %10) #11
  %12 = icmp eq i32 %11, 0
  br i1 %12, label %.sink.split, label %19

13:                                               ; preds = %3
  %14 = getelementptr inbounds i8, ptr %0, i64 4
  %15 = load i32, ptr %14, align 4
  %16 = load i32, ptr %6, align 8
  %17 = icmp eq i32 %15, %16
  br i1 %17, label %.sink.split, label %19

.sink.split:                                      ; preds = %13, %7
  %18 = getelementptr inbounds i8, ptr %2, i64 16
  store i64 %1, ptr %18, align 8
  br label %19

19:                                               ; preds = %.sink.split, %13, %7
  %.0 = phi i32 [ 0, %7 ], [ 0, %13 ], [ 1, %.sink.split ]
  ret i32 %.0
}